target datalayout = "e-m:e-p270:32:32-p271:32:32-p272:64:64-i64:64-i128:128-f80:128-n8:16:32:64-S128"
target triple = "x86_64-pc-linux-gnu"

%"class.icu_77::StringLocalizationInfo" = type { %"class.icu_77::LocalizationInfo.base", ptr, ptr, i32, i32 }
%"class.icu_77::LocalizationInfo.base" = type <{ ptr, i32 }>

; Function Attrs: mustprogress nounwind uwtable
define void @_ZN6icu_7716LocalizationInfoD2Ev(ptr noundef nonnull align 8 dereferenceable(12) %0) unnamed_addr #0 align 2 {
  %2 = alloca ptr, align 8
  store ptr %0, ptr %2, align 8, !tbaa !8
  ret void
}

; Function Attrs: mustprogress nounwind uwtable
define void @_ZN6icu_7722StringLocalizationInfoD2Ev(ptr noundef nonnull align 8 dereferenceable(40) %0) unnamed_addr #0 align 2 personality ptr @__gxx_personality_v0 {
  %2 = alloca ptr, align 8
  %3 = alloca ptr, align 8
  store ptr %0, ptr %2, align 8, !tbaa !65
  %4 = load ptr, ptr %2, align 8
  store ptr getelementptr inbounds inrange(-16, 80) ({ [12 x ptr] }, ptr @_ZTVN6icu_7722StringLocalizationInfoE, i32 0, i32 0, i32 2), ptr %4, align 8, !tbaa !10
  call void @llvm.lifetime.start.p0(i64 8, ptr %3) #14
  %5 = getelementptr inbounds nuw %"class.icu_77::StringLocalizationInfo", ptr %4, i32 0, i32 2
  %6 = load ptr, ptr %5, align 8, !tbaa !70
  store ptr %6, ptr %3, align 8, !tbaa !44
  br label %7

7:                                                ; preds = %21, %1
  %8 = load ptr, ptr %3, align 8, !tbaa !44
  %9 = load ptr, ptr %8, align 8, !tbaa !40
  %10 = icmp ne ptr %9, null
  br i1 %10, label %12, label %11

11:                                               ; preds = %7
  call void @llvm.lifetime.end.p0(i64 8, ptr %3) #14
  br label %24

12:                                               ; preds = %7
  %13 = load ptr, ptr %3, align 8, !tbaa !44
  %14 = load ptr, ptr %13, align 8, !tbaa !40
  %15 = icmp ne ptr %14, null
  br i1 %15, label %16, label %20

16:                                               ; preds = %12
  %17 = load ptr, ptr %3, align 8, !tbaa !44
  %18 = load ptr, ptr %17, align 8, !tbaa !40
  invoke void @uprv_free_77(ptr noundef %18)
          to label %19 unwind label %41

19:                                               ; preds = %16
  br label %20

20:                                               ; preds = %19, %12
  br label %21

21:                                               ; preds = %20
  %22 = load ptr, ptr %3, align 8, !tbaa !44
  %23 = getelementptr inbounds nuw ptr, ptr %22, i32 1
  store ptr %23, ptr %3, align 8, !tbaa !44
  br label %7, !llvm.loop !84

24:                                               ; preds = %11
  %25 = getelementptr inbounds nuw %"class.icu_77::StringLocalizationInfo", ptr %4, i32 0, i32 2
  %26 = load ptr, ptr %25, align 8, !tbaa !70
  %27 = icmp ne ptr %26, null
  br i1 %27, label %28, label %32

28:                                               ; preds = %24
  %29 = getelementptr inbounds nuw %"class.icu_77::StringLocalizationInfo", ptr %4, i32 0, i32 2
  %30 = load ptr, ptr %29, align 8, !tbaa !70
  invoke void @uprv_free_77(ptr noundef %30)
          to label %31 unwind label %41

31:                                               ; preds = %28
  br label %32

32:                                               ; preds = %31, %24
  %33 = getelementptr inbounds nuw %"class.icu_77::StringLocalizationInfo", ptr %4, i32 0, i32 1
  %34 = load ptr, ptr %33, align 8, !tbaa !67
  %35 = icmp ne ptr %34, null
  br i1 %35, label %36, label %40

36:                                               ; preds = %32
  %37 = getelementptr inbounds nuw %"class.icu_77::StringLocalizationInfo", ptr %4, i32 0, i32 1
  %38 = load ptr, ptr %37, align 8, !tbaa !67
  invoke void @uprv_free_77(ptr noundef %38)
          to label %39 unwind label %41

39:                                               ; preds = %36
  br label %40

40:                                               ; preds = %39, %32
  call void @_ZN6icu_7716LocalizationInfoD2Ev(ptr noundef nonnull align 8 dereferenceable(12) %4) #14
  ret void

41:                                               ; preds = %36, %28, %16
  %42 = landingpad { ptr, i32 }
          catch ptr null
  %43 = extractvalue { ptr, i32 } %42, 0
  call void @__clang_call_terminate(ptr %43) #13
  unreachable
}