; Function Attrs: mustprogress nounwind uwtable
define void @_ZN6icu_7722StringLocalizationInfoD2Ev(ptr noundef nonnull align 8 captures(none) dereferenceable(40) initializes((0, 8)) %0) unnamed_addr #7 align 2 personality ptr @__gxx_personality_v0 {
  store ptr getelementptr inbounds nuw inrange(-16, 80) (i8, ptr @_ZTVN6icu_7722StringLocalizationInfoE, i64 16), ptr %0, align 8, !tbaa !3
  %2 = getelementptr inbounds nuw i8, ptr %0, i64 24
  %3 = load ptr, ptr %2, align 8, !tbaa !47
  %4 = load ptr, ptr %3, align 8, !tbaa !60
  %.not10 = icmp eq ptr %4, null
  br i1 %.not10, label %._crit_edge.thread, label %.lr.ph

._crit_edge:                                      ; preds = %6
  %.pre = load ptr, ptr %2, align 8, !tbaa !47
  %.not8 = icmp eq ptr %.pre, null
  br i1 %.not8, label %10, label %._crit_edge.thread

.lr.ph:                                           ; preds = %1, %6
  %5 = phi ptr [ %8, %6 ], [ %4, %1 ]
  %.011 = phi ptr [ %7, %6 ], [ %3, %1 ]
  invoke void @uprv_free_77(ptr noundef nonnull %5)
          to label %6 unwind label %.loopexit

6:                                                ; preds = %.lr.ph
  %7 = getelementptr inbounds nuw i8, ptr %.011, i64 8
  %8 = load ptr, ptr %7, align 8, !tbaa !60
  %.not = icmp eq ptr %8, null
  br i1 %.not, label %._crit_edge, label %.lr.ph, !llvm.loop !62

._crit_edge.thread:                               ; preds = %1, %._crit_edge
  %9 = phi ptr [ %.pre, %._crit_edge ], [ %3, %1 ]
  invoke void @uprv_free_77(ptr noundef nonnull %9)
          to label %10 unwind label %.loopexit.split-lp

10:                                               ; preds = %._crit_edge.thread, %._crit_edge
  %11 = getelementptr inbounds nuw i8, ptr %0, i64 16
  %12 = load ptr, ptr %11, align 8, !tbaa !43
  %.not9 = icmp eq ptr %12, null
  br i1 %.not9, label %14, label %13

13:                                               ; preds = %10
  invoke void @uprv_free_77(ptr noundef nonnull %12)
          to label %14 unwind label %.loopexit.split-lp

14:                                               ; preds = %13, %10
  ret void

.loopexit:                                        ; preds = %.lr.ph
  %lpad.loopexit = landingpad { ptr, i32 }
          catch ptr null
  br label %15

.loopexit.split-lp:                               ; preds = %._crit_edge.thread, %13
  %lpad.loopexit.split-lp = landingpad { ptr, i32 }
          catch ptr null
  br label %15

15:                                               ; preds = %.loopexit.split-lp, %.loopexit
  %lpad.phi = phi { ptr, i32 } [ %lpad.loopexit, %.loopexit ], [ %lpad.loopexit.split-lp, %.loopexit.split-lp ]
  %16 = extractvalue { ptr, i32 } %lpad.phi, 0
  tail call void @__clang_call_terminate(ptr %16) #20
  unreachable
}